; Function Attrs: nounwind uwtable
define ptr @l_Lean_PersistentHashMap_foldlMAux_traverse___at_Lean_PersistentHashMap_forIn___spec__5___rarg___lambda__1(ptr noundef %0, ptr noundef %1, ptr noundef %2, ptr noundef %3, ptr noundef %4, ptr noundef %5) local_unnamed_addr #2 {
  %7 = ptrtoint ptr %0 to i64
  %8 = and i64 %7, 1
  %.not = icmp eq i64 %8, 0
  br i1 %.not, label %.critedge.i, label %9, !prof !16

9:                                                ; preds = %6
  %10 = lshr i64 %7, 1
  %11 = add nuw i64 %10, 1
  %12 = icmp sgt i64 %11, -1
  br i1 %12, label %13, label %17, !prof !11

13:                                               ; preds = %9
  %14 = shl nuw i64 %11, 1
  %15 = or disjoint i64 %14, 1
  %16 = inttoptr i64 %15 to ptr
  br label %lean_nat_add.exit

17:                                               ; preds = %9
  %18 = tail call ptr @lean_big_usize_to_nat(i64 noundef %11) #7
  br label %lean_nat_add.exit

.critedge.i:                                      ; preds = %6
  %19 = tail call ptr @lean_nat_big_add(ptr noundef %0, ptr noundef nonnull inttoptr (i64 3 to ptr)) #7
  br label %lean_nat_add.exit

lean_nat_add.exit:                                ; preds = %17, %13, %.critedge.i
  %.0.i = phi ptr [ %19, %.critedge.i ], [ %16, %13 ], [ %18, %17 ]
  %20 = tail call ptr @l_Lean_PersistentHashMap_foldlMAux_traverse___at_Lean_PersistentHashMap_forIn___spec__5___rarg(ptr noundef %1, ptr nonnull poison, ptr nonnull poison, ptr nonnull poison, ptr noundef %2, ptr noundef %3, ptr noundef %4, ptr nonnull poison, ptr noundef %.0.i, ptr noundef %5)
  ret ptr %20
}